target datalayout = "e-m:e-p270:32:32-p271:32:32-p272:64:64-i64:64-i128:128-f80:128-n8:16:32:64-S128"
target triple = "x86_64-pc-linux-gnu"

%struct.SDL_VideoDevice = type { ptr, ptr, ptr, ptr, ptr, ptr, ptr, ptr, ptr, ptr, ptr, ptr, ptr, ptr, ptr, ptr, ptr, ptr, ptr, ptr, ptr, ptr, ptr, ptr, ptr, ptr, ptr, ptr, ptr, ptr, ptr, ptr, ptr, ptr, ptr, ptr, ptr, ptr, ptr, ptr, ptr, ptr, ptr, ptr, ptr, ptr, ptr, ptr, ptr, ptr, ptr, ptr, ptr, ptr, ptr, ptr, ptr, ptr, ptr, ptr, ptr, ptr, ptr, ptr, ptr, ptr, ptr, ptr, ptr, ptr, ptr, ptr, ptr, ptr, ptr, ptr, ptr, ptr, ptr, ptr, ptr, ptr, ptr, ptr, ptr, ptr, ptr, ptr, ptr, ptr, ptr, ptr, ptr, ptr, ptr, ptr, ptr, i64, i8, i8, i8, ptr, i32, ptr, %struct.SDL_Rect, ptr, ptr, i32, ptr, ptr, ptr, ptr, i64, ptr, i8, i32, i32, %struct.anon, ptr, ptr, ptr, ptr, ptr, ptr, %struct.SDL_AtomicInt, %struct.SDL_AtomicInt, i8, %struct.anon.0, ptr, ptr, ptr, ptr, ptr }
%struct.SDL_Rect = type { i32, i32, i32, i32 }
%struct.anon = type { i32, i32, i32, i32, i32, i32, i32, i32, i32, i32, i32, i32, i32, i32, i32, i32, i32, i32, i32, i32, i32, i32, i32, i32, i32, i32, i32, i32, i32, [256 x i8], ptr }
%struct.SDL_AtomicInt = type { i32 }
%struct.anon.0 = type { ptr, ptr, i32, [256 x i8], ptr }
%struct.SDL_VideoData = type { ptr, ptr, i32, ptr, i64, i32, ptr, i32, i64, i64, %struct.X11_ClipboardData, %struct.X11_ClipboardData, ptr, i64, %struct.X11_SettingsData, i8, %struct.anon.1, [256 x i32], i8, i8, i8, i64, i8, %struct.SDL_Point, i32, ptr, i32, i8, i32, %struct.anon.2, i8, i64, ptr, ptr, i8, i8, i8 }
%struct.X11_ClipboardData = type { ptr, ptr, ptr, i64, i32 }
%struct.X11_SettingsData = type { ptr }
%struct.anon.1 = type { i64, i64, i64, i64, i64, i64, i64, i64, i64, i64, i64, i64, i64, i64, i64, i64, i64, i64, i64, i64, i64, i64, i64, i64, i64, i64, i64, i64, i64, i64, i64, i64, i64, i64, i64, i64, i64, i64, i64, i64, i64, i64, i64, i64, i64, i64, i64, i64, i64, i64, i64, i64, i64 }
%struct.SDL_Point = type { i32, i32 }
%struct.anon.2 = type { ptr, i32, i32, i32, i16, i32, i32 }
%struct.anon.4 = type { ptr, ptr, i32, i32, i32, i32, ptr, i64, i64, i64, i32, ptr, i32, i32, i32, i32, i32, ptr, i32, i32, ptr, ptr, i32, i64, i64, ptr, ptr, ptr, ptr, i32, ptr, ptr, ptr, i32, i32, ptr, i64, i64, i32, i32, ptr, ptr, i32, ptr }
%struct.Screen = type { ptr, ptr, i64, i32, i32, i32, i32, i32, ptr, i32, ptr, ptr, i64, i64, i64, i32, i32, i32, i32, i64 }
%struct.SDL_WindowData = type { ptr, i64, ptr, i64, i8, %struct.XShmSegmentInfo, ptr, ptr, ptr, i8, i32, i32, i32, i32, i8, i8, i8, i64, i32, i64, i8, %struct.SDL_Point, %struct.XConfigureEvent, %struct.XConfigureEvent, ptr, i64, i64, i64, i8, i64, ptr, i8, [4 x i64], %struct.SDL_Rect, i64, %struct._XSyncValue, i8, %struct.SDL_Rect, %struct.SDL_DisplayMode, i32, i32, i8, i8, i8, i8, i8, i8, i8, i8, i32, %struct.XPoint, ptr, ptr, i32, i32, i8 }
%struct.XShmSegmentInfo = type { i64, i32, ptr, i32 }
%struct.XConfigureEvent = type { i32, i64, i32, ptr, i64, i64, i32, i32, i32, i32, i32, i64, i32 }
%struct._XSyncValue = type { i32, i32 }
%struct.SDL_DisplayMode = type { i32, i32, i32, i32, float, float, i32, i32, ptr }
%struct.XPoint = type { i16, i16 }
%struct.SDL_Window = type { i32, ptr, ptr, i32, i32, i32, i32, i32, i32, i32, i32, float, float, i32, i32, i64, i64, float, i8, i8, i32, i32, %struct.SDL_Rect, %struct.SDL_Rect, %struct.SDL_Rect, i8, i8, i8, %struct.SDL_DisplayMode, %struct.SDL_DisplayMode, %struct.SDL_HDROutputProperties, float, ptr, i8, i8, i8, i8, i8, i8, i8, i8, i8, i32, i32, i32, i32, %struct.SDL_Rect, i32, i8, %struct.SDL_Rect, i32, %struct.SDL_Rect, ptr, ptr, i32, float, i32, i32, ptr, ptr, ptr, ptr, ptr, ptr, ptr, ptr, ptr }
%struct.SDL_HDROutputProperties = type { float, float }
%union._XEvent = type { [24 x i64] }
%struct.XClientMessageEvent = type { i32, i64, i32, ptr, i64, i64, i32, %union.anon }
%union.anon = type { [5 x i64] }

@X11_XSendEvent = external global ptr, align 8
@X11_XFlush = external global ptr, align 8
@X11_XUngrabPointer = external global ptr, align 8
@X11_XSync = external global ptr, align 8

; Function Attrs: nounwind uwtable
define internal void @DispatchWindowMove(ptr noundef %0, ptr noundef %1, ptr noundef %2) #0 {
  %4 = alloca ptr, align 8
  %5 = alloca ptr, align 8
  %6 = alloca ptr, align 8
  %7 = alloca ptr, align 8
  %8 = alloca ptr, align 8
  %9 = alloca ptr, align 8
  %10 = alloca %union._XEvent, align 8
  store ptr %0, ptr %4, align 8
  store ptr %1, ptr %5, align 8
  store ptr %2, ptr %6, align 8
  call void @llvm.lifetime.start.p0(i64 8, ptr %7) #7
  %11 = load ptr, ptr %4, align 8
  %12 = getelementptr inbounds nuw %struct.SDL_VideoDevice, ptr %11, i32 0, i32 128
  %13 = load ptr, ptr %12, align 8
  store ptr %13, ptr %7, align 8
  call void @llvm.lifetime.start.p0(i64 8, ptr %8) #7
  %14 = load ptr, ptr %5, align 8
  %15 = getelementptr inbounds nuw %struct.SDL_WindowData, ptr %14, i32 0, i32 0
  %16 = load ptr, ptr %15, align 8
  store ptr %16, ptr %8, align 8
  call void @llvm.lifetime.start.p0(i64 8, ptr %9) #7
  %17 = load ptr, ptr %7, align 8
  %18 = getelementptr inbounds nuw %struct.SDL_VideoData, ptr %17, i32 0, i32 0
  %19 = load ptr, ptr %18, align 8
  store ptr %19, ptr %9, align 8
  call void @llvm.lifetime.start.p0(i64 192, ptr %10) #7
  %20 = load ptr, ptr @X11_XUngrabPointer, align 8
  %21 = load ptr, ptr %9, align 8
  %22 = call i32 %20(ptr noundef %21, i64 noundef 0)
  %23 = load ptr, ptr @X11_XFlush, align 8
  %24 = load ptr, ptr %9, align 8
  %25 = call i32 %23(ptr noundef %24)
  %26 = getelementptr inbounds nuw %struct.XClientMessageEvent, ptr %10, i32 0, i32 0
  store i32 33, ptr %26, align 8
  %27 = load ptr, ptr %5, align 8
  %28 = getelementptr inbounds nuw %struct.SDL_WindowData, ptr %27, i32 0, i32 1
  %29 = load i64, ptr %28, align 8
  %30 = getelementptr inbounds nuw %struct.XClientMessageEvent, ptr %10, i32 0, i32 4
  store i64 %29, ptr %30, align 8
  %31 = load ptr, ptr %7, align 8
  %32 = getelementptr inbounds nuw %struct.SDL_VideoData, ptr %31, i32 0, i32 16
  %33 = getelementptr inbounds nuw %struct.anon.1, ptr %32, i32 0, i32 15
  %34 = load i64, ptr %33, align 8
  %35 = getelementptr inbounds nuw %struct.XClientMessageEvent, ptr %10, i32 0, i32 5
  store i64 %34, ptr %35, align 8
  %36 = getelementptr inbounds nuw %struct.XClientMessageEvent, ptr %10, i32 0, i32 6
  store i32 32, ptr %36, align 8
  %37 = load ptr, ptr %8, align 8
  %38 = getelementptr inbounds nuw %struct.SDL_Window, ptr %37, i32 0, i32 3
  %39 = load i32, ptr %38, align 8
  %40 = sext i32 %39 to i64
  %41 = load ptr, ptr %6, align 8
  %42 = getelementptr inbounds nuw %struct.SDL_Point, ptr %41, i32 0, i32 0
  %43 = load i32, ptr %42, align 4
  %44 = sext i32 %43 to i64
  %45 = add i64 %40, %44
  %46 = getelementptr inbounds nuw %struct.XClientMessageEvent, ptr %10, i32 0, i32 7
  %47 = getelementptr inbounds [5 x i64], ptr %46, i64 0, i64 0
  store i64 %45, ptr %47, align 8
  %48 = load ptr, ptr %8, align 8
  %49 = getelementptr inbounds nuw %struct.SDL_Window, ptr %48, i32 0, i32 4
  %50 = load i32, ptr %49, align 4
  %51 = sext i32 %50 to i64
  %52 = load ptr, ptr %6, align 8
  %53 = getelementptr inbounds nuw %struct.SDL_Point, ptr %52, i32 0, i32 1
  %54 = load i32, ptr %53, align 4
  %55 = sext i32 %54 to i64
  %56 = add i64 %51, %55
  %57 = getelementptr inbounds nuw %struct.XClientMessageEvent, ptr %10, i32 0, i32 7
  %58 = getelementptr inbounds [5 x i64], ptr %57, i64 0, i64 1
  store i64 %56, ptr %58, align 8
  %59 = getelementptr inbounds nuw %struct.XClientMessageEvent, ptr %10, i32 0, i32 7
  %60 = getelementptr inbounds [5 x i64], ptr %59, i64 0, i64 2
  store i64 8, ptr %60, align 8
  %61 = getelementptr inbounds nuw %struct.XClientMessageEvent, ptr %10, i32 0, i32 7
  %62 = getelementptr inbounds [5 x i64], ptr %61, i64 0, i64 3
  store i64 1, ptr %62, align 8
  %63 = getelementptr inbounds nuw %struct.XClientMessageEvent, ptr %10, i32 0, i32 7
  %64 = getelementptr inbounds [5 x i64], ptr %63, i64 0, i64 4
  store i64 0, ptr %64, align 8
  %65 = load ptr, ptr @X11_XSendEvent, align 8
  %66 = load ptr, ptr %9, align 8
  %67 = load ptr, ptr %9, align 8
  %68 = getelementptr inbounds nuw %struct.anon.4, ptr %67, i32 0, i32 35
  %69 = load ptr, ptr %68, align 8
  %70 = load ptr, ptr %9, align 8
  %71 = getelementptr inbounds nuw %struct.anon.4, ptr %70, i32 0, i32 33
  %72 = load i32, ptr %71, align 8
  %73 = sext i32 %72 to i64
  %74 = getelementptr inbounds %struct.Screen, ptr %69, i64 %73
  %75 = getelementptr inbounds nuw %struct.Screen, ptr %74, i32 0, i32 2
  %76 = load i64, ptr %75, align 8
  %77 = call i32 %65(ptr noundef %66, i64 noundef %76, i32 noundef 0, i64 noundef 1572864, ptr noundef %10)
  %78 = load ptr, ptr @X11_XSync, align 8
  %79 = load ptr, ptr %9, align 8
  %80 = call i32 %78(ptr noundef %79, i32 noundef 0)
  call void @llvm.lifetime.end.p0(i64 192, ptr %10) #7
  call void @llvm.lifetime.end.p0(i64 8, ptr %9) #7
  call void @llvm.lifetime.end.p0(i64 8, ptr %8) #7
  call void @llvm.lifetime.end.p0(i64 8, ptr %7) #7
  ret void
}