; Function Attrs: nounwind uwtable
define internal fastcc void @DispatchWindowMove(ptr readonly captures(none) %.1656.val, ptr noundef readonly captures(none) %0, ptr noundef nonnull readonly captures(none) %1) unnamed_addr #1 {
  %3 = alloca %union._XEvent, align 8
  %4 = load ptr, ptr %0, align 8
  %5 = load ptr, ptr %.1656.val, align 8
  call void @llvm.lifetime.start.p0(i64 192, ptr nonnull %3) #12
  %6 = load ptr, ptr @X11_XUngrabPointer, align 8
  %7 = tail call i32 %6(ptr noundef %5, i64 noundef 0) #12
  %8 = load ptr, ptr @X11_XFlush, align 8
  %9 = tail call i32 %8(ptr noundef %5) #12
  store i32 33, ptr %3, align 8
  %10 = getelementptr inbounds nuw i8, ptr %0, i64 8
  %11 = load i64, ptr %10, align 8
  %12 = getelementptr inbounds nuw i8, ptr %3, i64 32
  store i64 %11, ptr %12, align 8
  %13 = getelementptr inbounds nuw i8, ptr %.1656.val, i64 312
  %14 = load i64, ptr %13, align 8
  %15 = getelementptr inbounds nuw i8, ptr %3, i64 40
  store i64 %14, ptr %15, align 8
  %16 = getelementptr inbounds nuw i8, ptr %3, i64 48
  store i32 32, ptr %16, align 8
  %17 = getelementptr inbounds nuw i8, ptr %4, i64 24
  %18 = load i32, ptr %17, align 8
  %19 = sext i32 %18 to i64
  %20 = load i32, ptr %1, align 4
  %21 = sext i32 %20 to i64
  %22 = add nsw i64 %21, %19
  %23 = getelementptr inbounds nuw i8, ptr %3, i64 56
  store i64 %22, ptr %23, align 8
  %24 = getelementptr inbounds nuw i8, ptr %4, i64 28
  %25 = load i32, ptr %24, align 4
  %26 = sext i32 %25 to i64
  %27 = getelementptr inbounds nuw i8, ptr %1, i64 4
  %28 = load i32, ptr %27, align 4
  %29 = sext i32 %28 to i64
  %30 = add nsw i64 %29, %26
  %31 = getelementptr inbounds nuw i8, ptr %3, i64 64
  store i64 %30, ptr %31, align 8
  %32 = getelementptr inbounds nuw i8, ptr %3, i64 72
  store i64 8, ptr %32, align 8
  %33 = getelementptr inbounds nuw i8, ptr %3, i64 80
  store i64 1, ptr %33, align 8
  %34 = getelementptr inbounds nuw i8, ptr %3, i64 88
  store i64 0, ptr %34, align 8
  %35 = load ptr, ptr @X11_XSendEvent, align 8
  %36 = getelementptr inbounds nuw i8, ptr %5, i64 232
  %37 = load ptr, ptr %36, align 8
  %38 = getelementptr inbounds nuw i8, ptr %5, i64 224
  %39 = load i32, ptr %38, align 8
  %40 = sext i32 %39 to i64
  %41 = getelementptr inbounds %struct.Screen, ptr %37, i64 %40, i32 2
  %42 = load i64, ptr %41, align 8
  %43 = call i32 %35(ptr noundef %5, i64 noundef %42, i32 noundef 0, i64 noundef 1572864, ptr noundef nonnull %3) #12
  %44 = load ptr, ptr @X11_XSync, align 8
  %45 = call i32 %44(ptr noundef %5, i32 noundef 0) #12
  call void @llvm.lifetime.end.p0(i64 192, ptr nonnull %3) #12
  ret void
}